; ModuleID = '46/2909.c'
source_filename = "46/2909.c"
target datalayout = "e-m:e-p270:32:32-p271:32:32-p272:64:64-i64:64-f80:128-n8:16:32:64-S128"
target triple = "x86_64-pc-linux-gnu"

@.str = private unnamed_addr constant [5 x i8] c"%d%d\00", align 1
@.str.1 = private unnamed_addr constant [3 x i8] c"%d\00", align 1
@.str.2 = private unnamed_addr constant [4 x i8] c"%d\0A\00", align 1

; Function Attrs: noinline nounwind uwtable
define dso_local i32 @main() #0 {
  %1 = alloca i32, align 4
  %2 = alloca [100 x [100 x i32]], align 16
  %3 = alloca i32, align 4
  %4 = alloca i32, align 4
  %5 = alloca i32, align 4
  %6 = alloca i32, align 4
  %7 = alloca i32, align 4
  store i32 0, i32* %1, align 4
  store i32 0, i32* %7, align 4
  %8 = call i32 (i8*, ...) @__isoc99_scanf(i8* getelementptr inbounds ([5 x i8], [5 x i8]* @.str, i64 0, i64 0), i32* %4, i32* %3)
  store i32 0, i32* %5, align 4
  br label %9

9:                                                ; preds = %30, %0
  %10 = load i32, i32* %5, align 4
  %11 = load i32, i32* %4, align 4
  %12 = icmp slt i32 %10, %11
  br i1 %12, label %13, label %33

13:                                               ; preds = %9
  store i32 0, i32* %6, align 4
  br label %14

14:                                               ; preds = %26, %13
  %15 = load i32, i32* %6, align 4
  %16 = load i32, i32* %3, align 4
  %17 = icmp slt i32 %15, %16
  br i1 %17, label %18, label %29

18:                                               ; preds = %14
  %19 = load i32, i32* %5, align 4
  %20 = sext i32 %19 to i64
  %21 = getelementptr inbounds [100 x [100 x i32]], [100 x [100 x i32]]* %2, i64 0, i64 %20
  %22 = load i32, i32* %6, align 4
  %23 = sext i32 %22 to i64
  %24 = getelementptr inbounds [100 x i32], [100 x i32]* %21, i64 0, i64 %23
  %25 = call i32 (i8*, ...) @__isoc99_scanf(i8* getelementptr inbounds ([3 x i8], [3 x i8]* @.str.1, i64 0, i64 0), i32* %24)
  br label %26

26:                                               ; preds = %18
  %27 = load i32, i32* %6, align 4
  %28 = add nsw i32 %27, 1
  store i32 %28, i32* %6, align 4
  br label %14

29:                                               ; preds = %14
  br label %30

30:                                               ; preds = %29
  %31 = load i32, i32* %5, align 4
  %32 = add nsw i32 %31, 1
  store i32 %32, i32* %5, align 4
  br label %9

33:                                               ; preds = %9
  store i32 0, i32* %5, align 4
  store i32 0, i32* %6, align 4
  br label %34

34:                                               ; preds = %234, %33
  br i1 true, label %35, label %235

35:                                               ; preds = %34
  %36 = load i32, i32* %6, align 4
  store i32 %36, i32* %6, align 4
  br label %37

37:                                               ; preds = %76, %35
  %38 = load i32, i32* %6, align 4
  %39 = load i32, i32* %3, align 4
  %40 = icmp slt i32 %38, %39
  br i1 %40, label %41, label %79

41:                                               ; preds = %37
  %42 = load i32, i32* %5, align 4
  %43 = sext i32 %42 to i64
  %44 = getelementptr inbounds [100 x [100 x i32]], [100 x [100 x i32]]* %2, i64 0, i64 %43
  %45 = load i32, i32* %6, align 4
  %46 = sext i32 %45 to i64
  %47 = getelementptr inbounds [100 x i32], [100 x i32]* %44, i64 0, i64 %46
  %48 = load i32, i32* %47, align 4
  %49 = call i32 (i8*, ...) @printf(i8* getelementptr inbounds ([4 x i8], [4 x i8]* @.str.2, i64 0, i64 0), i32 %48)
  %50 = load i32, i32* %5, align 4
  %51 = sext i32 %50 to i64
  %52 = getelementptr inbounds [100 x [100 x i32]], [100 x [100 x i32]]* %2, i64 0, i64 %51
  %53 = load i32, i32* %6, align 4
  %54 = sext i32 %53 to i64
  %55 = getelementptr inbounds [100 x i32], [100 x i32]* %52, i64 0, i64 %54
  store i32 0, i32* %55, align 4
  %56 = load i32, i32* %7, align 4
  %57 = add nsw i32 %56, 1
  store i32 %57, i32* %7, align 4
  %58 = load i32, i32* %5, align 4
  %59 = sext i32 %58 to i64
  %60 = getelementptr inbounds [100 x [100 x i32]], [100 x [100 x i32]]* %2, i64 0, i64 %59
  %61 = load i32, i32* %6, align 4
  %62 = add nsw i32 %61, 1
  %63 = sext i32 %62 to i64
  %64 = getelementptr inbounds [100 x i32], [100 x i32]* %60, i64 0, i64 %63
  %65 = load i32, i32* %64, align 4
  %66 = icmp eq i32 %65, 0
  br i1 %66, label %72, label %67

67:                                               ; preds = %41
  %68 = load i32, i32* %6, align 4
  %69 = add nsw i32 %68, 1
  %70 = load i32, i32* %3, align 4
  %71 = icmp eq i32 %69, %70
  br i1 %71, label %72, label %75

72:                                               ; preds = %67, %41
  %73 = load i32, i32* %5, align 4
  %74 = add nsw i32 %73, 1
  store i32 %74, i32* %5, align 4
  br label %79

75:                                               ; preds = %67
  br label %76

76:                                               ; preds = %75
  %77 = load i32, i32* %6, align 4
  %78 = add nsw i32 %77, 1
  store i32 %78, i32* %6, align 4
  br label %37

79:                                               ; preds = %72, %37
  %80 = load i32, i32* %7, align 4
  %81 = load i32, i32* %3, align 4
  %82 = load i32, i32* %4, align 4
  %83 = mul nsw i32 %81, %82
  %84 = icmp sge i32 %80, %83
  br i1 %84, label %85, label %86

85:                                               ; preds = %79
  br label %235

86:                                               ; preds = %79
  %87 = load i32, i32* %5, align 4
  store i32 %87, i32* %5, align 4
  br label %88

88:                                               ; preds = %127, %86
  %89 = load i32, i32* %5, align 4
  %90 = load i32, i32* %4, align 4
  %91 = icmp slt i32 %89, %90
  br i1 %91, label %92, label %130

92:                                               ; preds = %88
  %93 = load i32, i32* %5, align 4
  %94 = sext i32 %93 to i64
  %95 = getelementptr inbounds [100 x [100 x i32]], [100 x [100 x i32]]* %2, i64 0, i64 %94
  %96 = load i32, i32* %6, align 4
  %97 = sext i32 %96 to i64
  %98 = getelementptr inbounds [100 x i32], [100 x i32]* %95, i64 0, i64 %97
  %99 = load i32, i32* %98, align 4
  %100 = call i32 (i8*, ...) @printf(i8* getelementptr inbounds ([4 x i8], [4 x i8]* @.str.2, i64 0, i64 0), i32 %99)
  %101 = load i32, i32* %5, align 4
  %102 = sext i32 %101 to i64
  %103 = getelementptr inbounds [100 x [100 x i32]], [100 x [100 x i32]]* %2, i64 0, i64 %102
  %104 = load i32, i32* %6, align 4
  %105 = sext i32 %104 to i64
  %106 = getelementptr inbounds [100 x i32], [100 x i32]* %103, i64 0, i64 %105
  store i32 0, i32* %106, align 4
  %107 = load i32, i32* %7, align 4
  %108 = add nsw i32 %107, 1
  store i32 %108, i32* %7, align 4
  %109 = load i32, i32* %5, align 4
  %110 = add nsw i32 %109, 1
  %111 = sext i32 %110 to i64
  %112 = getelementptr inbounds [100 x [100 x i32]], [100 x [100 x i32]]* %2, i64 0, i64 %111
  %113 = load i32, i32* %6, align 4
  %114 = sext i32 %113 to i64
  %115 = getelementptr inbounds [100 x i32], [100 x i32]* %112, i64 0, i64 %114
  %116 = load i32, i32* %115, align 4
  %117 = icmp eq i32 %116, 0
  br i1 %117, label %123, label %118

118:                                              ; preds = %92
  %119 = load i32, i32* %5, align 4
  %120 = add nsw i32 %119, 1
  %121 = load i32, i32* %4, align 4
  %122 = icmp eq i32 %120, %121
  br i1 %122, label %123, label %126

123:                                              ; preds = %118, %92
  %124 = load i32, i32* %6, align 4
  %125 = sub nsw i32 %124, 1
  store i32 %125, i32* %6, align 4
  br label %130

126:                                              ; preds = %118
  br label %127

127:                                              ; preds = %126
  %128 = load i32, i32* %5, align 4
  %129 = add nsw i32 %128, 1
  store i32 %129, i32* %5, align 4
  br label %88

130:                                              ; preds = %123, %88
  %131 = load i32, i32* %7, align 4
  %132 = load i32, i32* %3, align 4
  %133 = load i32, i32* %4, align 4
  %134 = mul nsw i32 %132, %133
  %135 = icmp sge i32 %131, %134
  br i1 %135, label %136, label %137

136:                                              ; preds = %130
  br label %235

137:                                              ; preds = %130
  %138 = load i32, i32* %6, align 4
  store i32 %138, i32* %6, align 4
  br label %139

139:                                              ; preds = %175, %137
  %140 = load i32, i32* %6, align 4
  %141 = icmp sge i32 %140, 0
  br i1 %141, label %142, label %178

142:                                              ; preds = %139
  %143 = load i32, i32* %5, align 4
  %144 = sext i32 %143 to i64
  %145 = getelementptr inbounds [100 x [100 x i32]], [100 x [100 x i32]]* %2, i64 0, i64 %144
  %146 = load i32, i32* %6, align 4
  %147 = sext i32 %146 to i64
  %148 = getelementptr inbounds [100 x i32], [100 x i32]* %145, i64 0, i64 %147
  %149 = load i32, i32* %148, align 4
  %150 = call i32 (i8*, ...) @printf(i8* getelementptr inbounds ([4 x i8], [4 x i8]* @.str.2, i64 0, i64 0), i32 %149)
  %151 = load i32, i32* %5, align 4
  %152 = sext i32 %151 to i64
  %153 = getelementptr inbounds [100 x [100 x i32]], [100 x [100 x i32]]* %2, i64 0, i64 %152
  %154 = load i32, i32* %6, align 4
  %155 = sext i32 %154 to i64
  %156 = getelementptr inbounds [100 x i32], [100 x i32]* %153, i64 0, i64 %155
  store i32 0, i32* %156, align 4
  %157 = load i32, i32* %7, align 4
  %158 = add nsw i32 %157, 1
  store i32 %158, i32* %7, align 4
  %159 = load i32, i32* %5, align 4
  %160 = sext i32 %159 to i64
  %161 = getelementptr inbounds [100 x [100 x i32]], [100 x [100 x i32]]* %2, i64 0, i64 %160
  %162 = load i32, i32* %6, align 4
  %163 = sub nsw i32 %162, 1
  %164 = sext i32 %163 to i64
  %165 = getelementptr inbounds [100 x i32], [100 x i32]* %161, i64 0, i64 %164
  %166 = load i32, i32* %165, align 4
  %167 = icmp eq i32 %166, 0
  br i1 %167, label %171, label %168

168:                                              ; preds = %142
  %169 = load i32, i32* %6, align 4
  %170 = icmp eq i32 %169, 0
  br i1 %170, label %171, label %174

171:                                              ; preds = %168, %142
  %172 = load i32, i32* %5, align 4
  %173 = sub nsw i32 %172, 1
  store i32 %173, i32* %5, align 4
  br label %178

174:                                              ; preds = %168
  br label %175

175:                                              ; preds = %174
  %176 = load i32, i32* %6, align 4
  %177 = add nsw i32 %176, -1
  store i32 %177, i32* %6, align 4
  br label %139

178:                                              ; preds = %171, %139
  %179 = load i32, i32* %7, align 4
  %180 = load i32, i32* %3, align 4
  %181 = load i32, i32* %4, align 4
  %182 = mul nsw i32 %180, %181
  %183 = icmp sge i32 %179, %182
  br i1 %183, label %184, label %185

184:                                              ; preds = %178
  br label %235

185:                                              ; preds = %178
  %186 = load i32, i32* %5, align 4
  store i32 %186, i32* %5, align 4
  br label %187

187:                                              ; preds = %223, %185
  %188 = load i32, i32* %5, align 4
  %189 = icmp sge i32 %188, 0
  br i1 %189, label %190, label %226

190:                                              ; preds = %187
  %191 = load i32, i32* %5, align 4
  %192 = sext i32 %191 to i64
  %193 = getelementptr inbounds [100 x [100 x i32]], [100 x [100 x i32]]* %2, i64 0, i64 %192
  %194 = load i32, i32* %6, align 4
  %195 = sext i32 %194 to i64
  %196 = getelementptr inbounds [100 x i32], [100 x i32]* %193, i64 0, i64 %195
  %197 = load i32, i32* %196, align 4
  %198 = call i32 (i8*, ...) @printf(i8* getelementptr inbounds ([4 x i8], [4 x i8]* @.str.2, i64 0, i64 0), i32 %197)
  %199 = load i32, i32* %5, align 4
  %200 = sext i32 %199 to i64
  %201 = getelementptr inbounds [100 x [100 x i32]], [100 x [100 x i32]]* %2, i64 0, i64 %200
  %202 = load i32, i32* %6, align 4
  %203 = sext i32 %202 to i64
  %204 = getelementptr inbounds [100 x i32], [100 x i32]* %201, i64 0, i64 %203
  store i32 0, i32* %204, align 4
  %205 = load i32, i32* %7, align 4
  %206 = add nsw i32 %205, 1
  store i32 %206, i32* %7, align 4
  %207 = load i32, i32* %5, align 4
  %208 = sub nsw i32 %207, 1
  %209 = sext i32 %208 to i64
  %210 = getelementptr inbounds [100 x [100 x i32]], [100 x [100 x i32]]* %2, i64 0, i64 %209
  %211 = load i32, i32* %6, align 4
  %212 = sext i32 %211 to i64
  %213 = getelementptr inbounds [100 x i32], [100 x i32]* %210, i64 0, i64 %212
  %214 = load i32, i32* %213, align 4
  %215 = icmp eq i32 %214, 0
  br i1 %215, label %219, label %216

216:                                              ; preds = %190
  %217 = load i32, i32* %5, align 4
  %218 = icmp eq i32 %217, 0
  br i1 %218, label %219, label %222

219:                                              ; preds = %216, %190
  %220 = load i32, i32* %6, align 4
  %221 = add nsw i32 %220, 1
  store i32 %221, i32* %6, align 4
  br label %226

222:                                              ; preds = %216
  br label %223

223:                                              ; preds = %222
  %224 = load i32, i32* %5, align 4
  %225 = add nsw i32 %224, -1
  store i32 %225, i32* %5, align 4
  br label %187

226:                                              ; preds = %219, %187
  %227 = load i32, i32* %7, align 4
  %228 = load i32, i32* %3, align 4
  %229 = load i32, i32* %4, align 4
  %230 = mul nsw i32 %228, %229
  %231 = icmp sge i32 %227, %230
  br i1 %231, label %232, label %233

232:                                              ; preds = %226
  br label %235

233:                                              ; preds = %226
  br label %234

234:                                              ; preds = %233
  br label %34

235:                                              ; preds = %232, %184, %136, %85, %34
  ret i32 0
}

declare dso_local i32 @__isoc99_scanf(i8*, ...) #1

declare dso_local i32 @printf(i8*, ...) #1


!llvm.module.flags = !{!0}
!llvm.ident = !{!1}

!0 = !{i32 1, !"wchar_size", i32 4}
!1 = !{!"clang version 10.0.0-4ubuntu1 "}
